target datalayout = "e-m:e-p270:32:32-p271:32:32-p272:64:64-i64:64-i128:128-f80:128-n8:16:32:64-S128"
target triple = "x86_64-pc-linux-gnu"

%struct._typeobject = type { %struct.PyVarObject, ptr, i64, i64, ptr, i64, ptr, ptr, ptr, ptr, ptr, ptr, ptr, ptr, ptr, ptr, ptr, ptr, ptr, i64, ptr, ptr, ptr, ptr, i64, ptr, ptr, ptr, ptr, ptr, ptr, ptr, ptr, ptr, i64, ptr, ptr, ptr, ptr, ptr, ptr, ptr, ptr, ptr, ptr, ptr, i32, ptr, ptr, i8, i16 }
%struct.PyVarObject = type { %struct._object, i64 }
%struct._object = type { %union.anon, ptr }
%union.anon = type { i64 }
%struct.filterobject = type { %struct._object, ptr, ptr }
%struct.anon = type { i32, i32 }

@.str = private unnamed_addr constant [7 x i8] c"filter\00", align 1

; Function Attrs: alwaysinline nounwind uwtable
define internal void @Py_INCREF(ptr noundef %0) #3 {
  %2 = alloca ptr, align 8
  %3 = alloca i32, align 4
  %4 = alloca i32, align 4
  store ptr %0, ptr %2, align 8, !tbaa !4
  call void @llvm.lifetime.start.p0(i64 4, ptr %3) #9
  %5 = load ptr, ptr %2, align 8, !tbaa !4
  %6 = getelementptr inbounds nuw %struct._object, ptr %5, i32 0, i32 0
  %7 = getelementptr inbounds nuw %struct.anon, ptr %6, i32 0, i32 0
  %8 = load i32, ptr %7, align 8, !tbaa !74
  store i32 %8, ptr %3, align 4, !tbaa !38
  %9 = load i32, ptr %3, align 4, !tbaa !38
  %10 = icmp slt i32 %9, 0
  br i1 %10, label %11, label %12

11:                                               ; preds = %1
  store i32 1, ptr %4, align 4
  br label %18

12:                                               ; preds = %1
  %13 = load i32, ptr %3, align 4, !tbaa !38
  %14 = add i32 %13, 1
  %15 = load ptr, ptr %2, align 8, !tbaa !4
  %16 = getelementptr inbounds nuw %struct._object, ptr %15, i32 0, i32 0
  %17 = getelementptr inbounds nuw %struct.anon, ptr %16, i32 0, i32 0
  store i32 %14, ptr %17, align 8, !tbaa !74
  store i32 0, ptr %4, align 4
  br label %18

18:                                               ; preds = %12, %11
  call void @llvm.lifetime.end.p0(i64 4, ptr %3) #9
  %19 = load i32, ptr %4, align 4
  switch i32 %19, label %21 [
    i32 0, label %20
    i32 1, label %20
  ]

20:                                               ; preds = %18, %18
  ret void

21:                                               ; preds = %18
  unreachable
}

; Function Attrs: alwaysinline nounwind uwtable
define internal i32 @_Py_IsImmortal(ptr noundef %0) #3 {
  %2 = alloca ptr, align 8
  store ptr %0, ptr %2, align 8, !tbaa !4
  %3 = load ptr, ptr %2, align 8, !tbaa !4
  %4 = getelementptr inbounds nuw %struct._object, ptr %3, i32 0, i32 0
  %5 = getelementptr inbounds nuw %struct.anon, ptr %4, i32 0, i32 0
  %6 = load i32, ptr %5, align 8, !tbaa !74
  %7 = icmp slt i32 %6, 0
  %8 = zext i1 %7 to i32
  ret i32 %8
}

; Function Attrs: inlinehint nounwind uwtable
define internal ptr @_Py_NewRef(ptr noundef %0) #4 {
  %2 = alloca ptr, align 8
  store ptr %0, ptr %2, align 8, !tbaa !4
  %3 = load ptr, ptr %2, align 8, !tbaa !4
  call void @Py_INCREF(ptr noundef %3)
  %4 = load ptr, ptr %2, align 8, !tbaa !4
  ret ptr %4
}

; Function Attrs: alwaysinline nounwind uwtable
define internal void @Py_DECREF(ptr noundef %0) #3 {
  %2 = alloca ptr, align 8
  store ptr %0, ptr %2, align 8, !tbaa !4
  %3 = load ptr, ptr %2, align 8, !tbaa !4
  %4 = call i32 @_Py_IsImmortal(ptr noundef %3)
  %5 = icmp ne i32 %4, 0
  br i1 %5, label %6, label %7

6:                                                ; preds = %1
  br label %16

7:                                                ; preds = %1
  %8 = load ptr, ptr %2, align 8, !tbaa !4
  %9 = getelementptr inbounds nuw %struct._object, ptr %8, i32 0, i32 0
  %10 = getelementptr inbounds nuw %struct.anon, ptr %9, i32 0, i32 0
  %11 = load i32, ptr %10, align 8, !tbaa !74
  %12 = add i32 %11, -1
  store i32 %12, ptr %10, align 8, !tbaa !74
  %13 = icmp eq i32 %12, 0
  br i1 %13, label %14, label %16

14:                                               ; preds = %7
  %15 = load ptr, ptr %2, align 8, !tbaa !4
  call void @_Py_Dealloc(ptr noundef %15)
  br label %16

16:                                               ; preds = %6, %14, %7
  ret void
}

; Function Attrs: nounwind uwtable
define internal ptr @filter_new(ptr noundef %0, ptr noundef %1, ptr noundef %2) #0 {
  %4 = alloca ptr, align 8
  %5 = alloca ptr, align 8
  %6 = alloca ptr, align 8
  %7 = alloca ptr, align 8
  %8 = alloca ptr, align 8
  %9 = alloca ptr, align 8
  %10 = alloca ptr, align 8
  %11 = alloca ptr, align 8
  %12 = alloca i32, align 4
  store ptr %0, ptr %5, align 8, !tbaa !41
  store ptr %1, ptr %6, align 8, !tbaa !4
  store ptr %2, ptr %7, align 8, !tbaa !4
  call void @llvm.lifetime.start.p0(i64 8, ptr %8) #9
  call void @llvm.lifetime.start.p0(i64 8, ptr %9) #9
  call void @llvm.lifetime.start.p0(i64 8, ptr %10) #9
  call void @llvm.lifetime.start.p0(i64 8, ptr %11) #9
  %13 = load ptr, ptr %5, align 8, !tbaa !41
  %14 = icmp eq ptr %13, @PyFilter_Type
  br i1 %14, label %21, label %15

15:                                               ; preds = %3
  %16 = load ptr, ptr %5, align 8, !tbaa !41
  %17 = getelementptr inbounds nuw %struct._typeobject, ptr %16, i32 0, i32 35
  %18 = load ptr, ptr %17, align 8, !tbaa !42
  %19 = load ptr, ptr getelementptr inbounds nuw (%struct._typeobject, ptr @PyFilter_Type, i32 0, i32 35), align 8, !tbaa !42
  %20 = icmp eq ptr %18, %19
  br i1 %20, label %21, label %29

21:                                               ; preds = %15, %3
  %22 = load ptr, ptr %7, align 8, !tbaa !4
  %23 = icmp eq ptr %22, null
  br i1 %23, label %29, label %24

24:                                               ; preds = %21
  %25 = load ptr, ptr %7, align 8, !tbaa !4
  %26 = call i32 @_PyArg_NoKeywords(ptr noundef @.str, ptr noundef %25)
  %27 = icmp ne i32 %26, 0
  br i1 %27, label %29, label %28

28:                                               ; preds = %24
  store ptr null, ptr %4, align 8
  store i32 1, ptr %12, align 4
  br label %59

29:                                               ; preds = %24, %21, %15
  %30 = load ptr, ptr %6, align 8, !tbaa !4
  %31 = call i32 (ptr, ptr, i64, i64, ...) @PyArg_UnpackTuple(ptr noundef %30, ptr noundef @.str, i64 noundef 2, i64 noundef 2, ptr noundef %8, ptr noundef %9)
  %32 = icmp ne i32 %31, 0
  br i1 %32, label %34, label %33

33:                                               ; preds = %29
  store ptr null, ptr %4, align 8
  store i32 1, ptr %12, align 4
  br label %59

34:                                               ; preds = %29
  %35 = load ptr, ptr %9, align 8, !tbaa !4
  %36 = call ptr @PyObject_GetIter(ptr noundef %35)
  store ptr %36, ptr %10, align 8, !tbaa !4
  %37 = load ptr, ptr %10, align 8, !tbaa !4
  %38 = icmp eq ptr %37, null
  br i1 %38, label %39, label %40

39:                                               ; preds = %34
  store ptr null, ptr %4, align 8
  store i32 1, ptr %12, align 4
  br label %59

40:                                               ; preds = %34
  %41 = load ptr, ptr %5, align 8, !tbaa !41
  %42 = getelementptr inbounds nuw %struct._typeobject, ptr %41, i32 0, i32 36
  %43 = load ptr, ptr %42, align 8, !tbaa !43
  %44 = load ptr, ptr %5, align 8, !tbaa !41
  %45 = call ptr %43(ptr noundef %44, i64 noundef 0)
  store ptr %45, ptr %11, align 8, !tbaa !9
  %46 = load ptr, ptr %11, align 8, !tbaa !9
  %47 = icmp eq ptr %46, null
  br i1 %47, label %48, label %50

48:                                               ; preds = %40
  %49 = load ptr, ptr %10, align 8, !tbaa !4
  call void @Py_DECREF(ptr noundef %49)
  store ptr null, ptr %4, align 8
  store i32 1, ptr %12, align 4
  br label %59

50:                                               ; preds = %40
  %51 = load ptr, ptr %8, align 8, !tbaa !4
  %52 = call ptr @_Py_NewRef(ptr noundef %51)
  %53 = load ptr, ptr %11, align 8, !tbaa !9
  %54 = getelementptr inbounds nuw %struct.filterobject, ptr %53, i32 0, i32 1
  store ptr %52, ptr %54, align 8, !tbaa !33
  %55 = load ptr, ptr %10, align 8, !tbaa !4
  %56 = load ptr, ptr %11, align 8, !tbaa !9
  %57 = getelementptr inbounds nuw %struct.filterobject, ptr %56, i32 0, i32 2
  store ptr %55, ptr %57, align 8, !tbaa !35
  %58 = load ptr, ptr %11, align 8, !tbaa !9
  store ptr %58, ptr %4, align 8
  store i32 1, ptr %12, align 4
  br label %59

59:                                               ; preds = %50, %48, %39, %33, %28
  call void @llvm.lifetime.end.p0(i64 8, ptr %11) #9
  call void @llvm.lifetime.end.p0(i64 8, ptr %10) #9
  call void @llvm.lifetime.end.p0(i64 8, ptr %9) #9
  call void @llvm.lifetime.end.p0(i64 8, ptr %8) #9
  %60 = load ptr, ptr %4, align 8
  ret ptr %60
}