; Function Attrs: nounwind uwtable
define internal ptr @filter_new(ptr noundef %0, ptr noundef %1, ptr noundef %2) #0 {
  %4 = alloca ptr, align 8
  %5 = alloca ptr, align 8
  call void @llvm.lifetime.start.p0(i64 8, ptr nonnull %4) #9
  call void @llvm.lifetime.start.p0(i64 8, ptr nonnull %5) #9
  %6 = icmp eq ptr %0, @PyFilter_Type
  br i1 %6, label %13, label %7

7:                                                ; preds = %3
  %8 = getelementptr inbounds nuw i8, ptr %0, i64 296
  %9 = load ptr, ptr %8, align 8, !tbaa !38
  %10 = load ptr, ptr getelementptr inbounds nuw (i8, ptr @PyFilter_Type, i64 296), align 8, !tbaa !38
  %11 = icmp ne ptr %9, %10
  %12 = icmp eq ptr %2, null
  %or.cond = or i1 %12, %11
  br i1 %or.cond, label %16, label %14

13:                                               ; preds = %3
  %.old1 = icmp eq ptr %2, null
  br i1 %.old1, label %16, label %14

14:                                               ; preds = %7, %13
  %15 = tail call i32 @_PyArg_NoKeywords(ptr noundef nonnull @.str, ptr noundef nonnull %2) #9
  %.not = icmp eq i32 %15, 0
  br i1 %.not, label %Py_DECREF.exit, label %16

16:                                               ; preds = %14, %13, %7
  %17 = call i32 (ptr, ptr, i64, i64, ...) @PyArg_UnpackTuple(ptr noundef %1, ptr noundef nonnull @.str, i64 noundef 2, i64 noundef 2, ptr noundef nonnull %4, ptr noundef nonnull %5) #9
  %.not19 = icmp eq i32 %17, 0
  br i1 %.not19, label %Py_DECREF.exit, label %18

18:                                               ; preds = %16
  %19 = load ptr, ptr %5, align 8, !tbaa !39
  %20 = call ptr @PyObject_GetIter(ptr noundef %19) #9
  %21 = icmp eq ptr %20, null
  br i1 %21, label %Py_DECREF.exit, label %22

22:                                               ; preds = %18
  %23 = getelementptr inbounds nuw i8, ptr %0, i64 304
  %24 = load ptr, ptr %23, align 8, !tbaa !40
  %25 = call ptr %24(ptr noundef %0, i64 noundef 0) #9
  %26 = icmp eq ptr %25, null
  br i1 %26, label %27, label %33

27:                                               ; preds = %22
  %28 = load i32, ptr %20, align 8, !tbaa !33
  %.not.i = icmp sgt i32 %28, -1
  br i1 %.not.i, label %29, label %Py_DECREF.exit

29:                                               ; preds = %27
  %30 = add nsw i32 %28, -1
  store i32 %30, ptr %20, align 8, !tbaa !33
  %31 = icmp eq i32 %30, 0
  br i1 %31, label %32, label %Py_DECREF.exit

32:                                               ; preds = %29
  call void @_Py_Dealloc(ptr noundef nonnull %20) #9
  br label %Py_DECREF.exit

33:                                               ; preds = %22
  %34 = load ptr, ptr %4, align 8, !tbaa !39
  %35 = load i32, ptr %34, align 8, !tbaa !33
  %36 = icmp slt i32 %35, 0
  br i1 %36, label %_Py_NewRef.exit, label %37

37:                                               ; preds = %33
  %38 = add nuw i32 %35, 1
  store i32 %38, ptr %34, align 8, !tbaa !33
  br label %_Py_NewRef.exit

_Py_NewRef.exit:                                  ; preds = %33, %37
  %39 = getelementptr inbounds nuw i8, ptr %25, i64 16
  store ptr %34, ptr %39, align 8, !tbaa !31
  %40 = getelementptr inbounds nuw i8, ptr %25, i64 24
  store ptr %20, ptr %40, align 8, !tbaa !34
  br label %Py_DECREF.exit

Py_DECREF.exit:                                   ; preds = %32, %29, %27, %18, %16, %14, %_Py_NewRef.exit
  %.0 = phi ptr [ %25, %_Py_NewRef.exit ], [ null, %14 ], [ null, %16 ], [ null, %18 ], [ null, %27 ], [ null, %29 ], [ null, %32 ]
  call void @llvm.lifetime.end.p0(i64 8, ptr nonnull %5) #9
  call void @llvm.lifetime.end.p0(i64 8, ptr nonnull %4) #9
  ret ptr %.0
}